target datalayout = "e-m:e-p270:32:32-p271:32:32-p272:64:64-i64:64-i128:128-f80:128-n8:16:32:64-S128"
target triple = "x86_64-pc-linux-gnu"

%"struct.zmq::socks_auth_response_t" = type { i8 }
%"class.zmq::socks_auth_response_decoder_t" = type { [2 x i8], i64 }

@stderr = external global ptr, align 8
@.str = private unnamed_addr constant [30 x i8] c"Assertion failed: %s (%s:%d)\0A\00", align 1
@.str.2 = private unnamed_addr constant [105 x i8] c"generated/home/dtcxzyw/WorkSpace/Projects/compilers/llvm-opt-benchmark/bench/libzmq/libzmq/src/socks.cpp\00", align 1
@.str.3 = private unnamed_addr constant [17 x i8] c"message_ready ()\00", align 1
@_ZN3zmq21socks_auth_response_tC1Eh = unnamed_addr alias void (ptr, i8), ptr @_ZN3zmq21socks_auth_response_tC2Eh

; Function Attrs: mustprogress nounwind uwtable
define noundef zeroext i1 @_ZNK3zmq29socks_auth_response_decoder_t13message_readyEv(ptr noundef nonnull align 8 dereferenceable(16) %0) #0 align 2 {
  %2 = alloca ptr, align 8
  store ptr %0, ptr %2, align 8, !tbaa !50
  %3 = load ptr, ptr %2, align 8
  %4 = getelementptr inbounds nuw %"class.zmq::socks_auth_response_decoder_t", ptr %3, i32 0, i32 1
  %5 = load i64, ptr %4, align 8, !tbaa !52
  %6 = icmp eq i64 %5, 2
  ret i1 %6
}

; Function Attrs: mustprogress uwtable
define i8 @_ZN3zmq29socks_auth_response_decoder_t6decodeEv(ptr noundef nonnull align 8 dereferenceable(16) %0) #2 align 2 {
  %2 = alloca %"struct.zmq::socks_auth_response_t", align 1
  %3 = alloca ptr, align 8
  store ptr %0, ptr %3, align 8, !tbaa !50
  %4 = load ptr, ptr %3, align 8
  br label %5

5:                                                ; preds = %1
  %6 = call noundef zeroext i1 @_ZNK3zmq29socks_auth_response_decoder_t13message_readyEv(ptr noundef nonnull align 8 dereferenceable(16) %4)
  %7 = xor i1 %6, true
  %8 = zext i1 %7 to i64
  %9 = call i64 @llvm.expect.i64(i64 %8, i64 0)
  %10 = icmp ne i64 %9, 0
  br i1 %10, label %11, label %16

11:                                               ; preds = %5
  %12 = load ptr, ptr @stderr, align 8, !tbaa !32
  %13 = call i32 (ptr, ptr, ...) @fprintf(ptr noundef %12, ptr noundef @.str, ptr noundef @.str.3, ptr noundef @.str.2, i32 noundef 183) #14
  %14 = load ptr, ptr @stderr, align 8, !tbaa !32
  %15 = call i32 @fflush(ptr noundef %14)
  call void @_ZN3zmq9zmq_abortEPKc(ptr noundef @.str.3)
  br label %16

16:                                               ; preds = %11, %5
  br label %17

17:                                               ; preds = %16
  %18 = getelementptr inbounds nuw %"class.zmq::socks_auth_response_decoder_t", ptr %4, i32 0, i32 0
  %19 = getelementptr inbounds [2 x i8], ptr %18, i64 0, i64 1
  %20 = load i8, ptr %19, align 1, !tbaa !8
  call void @_ZN3zmq21socks_auth_response_tC1Eh(ptr noundef nonnull align 1 dereferenceable(1) %2, i8 noundef zeroext %20)
  %21 = getelementptr inbounds nuw %"struct.zmq::socks_auth_response_t", ptr %2, i32 0, i32 0
  %22 = load i8, ptr %21, align 1
  ret i8 %22
}